target datalayout = "e-m:e-p270:32:32-p271:32:32-p272:64:64-i64:64-i128:128-f80:128-n8:16:32:64-S128"
target triple = "x86_64-pc-linux-gnu"

%"struct.boost::urls::detail::url_impl" = type <{ ptr, [8 x i64], [7 x i64], i64, i64, [16 x i8], i16, [2 x i8], i32, i16, i8, [5 x i8] }>
%"class.boost::urls::detail::query_ref" = type <{ ptr, ptr, i64, i64, i64, i8, [7 x i8] }>

; Function Attrs: mustprogress nounwind uwtable
define noundef ptr @_ZNK5boost4urls6detail9query_ref5beginEv(ptr noundef nonnull align 8 dereferenceable(41) %0) #1 align 2 {
  %2 = alloca ptr, align 8
  %3 = alloca ptr, align 8
  %4 = alloca i64, align 8
  %5 = alloca i64, align 8
  %6 = alloca i32, align 4
  store ptr %0, ptr %3, align 8, !tbaa !3
  %7 = load ptr, ptr %3, align 8
  %8 = getelementptr inbounds nuw %"class.boost::urls::detail::query_ref", ptr %7, i32 0, i32 0
  %9 = load ptr, ptr %8, align 8, !tbaa !48
  %10 = icmp ne ptr %9, null
  br i1 %10, label %11, label %41

11:                                               ; preds = %1
  call void @llvm.lifetime.start.p0(i64 8, ptr %4) #5
  %12 = getelementptr inbounds nuw %"class.boost::urls::detail::query_ref", ptr %7, i32 0, i32 0
  %13 = load ptr, ptr %12, align 8, !tbaa !48
  %14 = getelementptr inbounds nuw %"struct.boost::urls::detail::url_impl", ptr %13, i32 0, i32 1
  %15 = getelementptr inbounds [8 x i64], ptr %14, i64 0, i64 5
  %16 = load i64, ptr %15, align 8, !tbaa !8
  store i64 %16, ptr %4, align 8, !tbaa !8
  call void @llvm.lifetime.start.p0(i64 8, ptr %5) #5
  %17 = getelementptr inbounds nuw %"class.boost::urls::detail::query_ref", ptr %7, i32 0, i32 0
  %18 = load ptr, ptr %17, align 8, !tbaa !48
  %19 = getelementptr inbounds nuw %"struct.boost::urls::detail::url_impl", ptr %18, i32 0, i32 1
  %20 = getelementptr inbounds [8 x i64], ptr %19, i64 0, i64 6
  %21 = load i64, ptr %20, align 8, !tbaa !8
  store i64 %21, ptr %5, align 8, !tbaa !8
  %22 = load i64, ptr %4, align 8, !tbaa !8
  %23 = load i64, ptr %5, align 8, !tbaa !8
  %24 = icmp ult i64 %22, %23
  br i1 %24, label %25, label %33

25:                                               ; preds = %11
  %26 = getelementptr inbounds nuw %"class.boost::urls::detail::query_ref", ptr %7, i32 0, i32 0
  %27 = load ptr, ptr %26, align 8, !tbaa !48
  %28 = getelementptr inbounds nuw %"struct.boost::urls::detail::url_impl", ptr %27, i32 0, i32 0
  %29 = load ptr, ptr %28, align 8, !tbaa !36
  %30 = load i64, ptr %4, align 8, !tbaa !8
  %31 = getelementptr inbounds nuw i8, ptr %29, i64 %30
  %32 = getelementptr inbounds i8, ptr %31, i64 1
  store ptr %32, ptr %2, align 8
  store i32 1, ptr %6, align 4
  br label %40

33:                                               ; preds = %11
  %34 = getelementptr inbounds nuw %"class.boost::urls::detail::query_ref", ptr %7, i32 0, i32 0
  %35 = load ptr, ptr %34, align 8, !tbaa !48
  %36 = getelementptr inbounds nuw %"struct.boost::urls::detail::url_impl", ptr %35, i32 0, i32 0
  %37 = load ptr, ptr %36, align 8, !tbaa !36
  %38 = load i64, ptr %4, align 8, !tbaa !8
  %39 = getelementptr inbounds nuw i8, ptr %37, i64 %38
  store ptr %39, ptr %2, align 8
  store i32 1, ptr %6, align 4
  br label %40

40:                                               ; preds = %33, %25
  call void @llvm.lifetime.end.p0(i64 8, ptr %5) #5
  call void @llvm.lifetime.end.p0(i64 8, ptr %4) #5
  br label %44

41:                                               ; preds = %1
  %42 = getelementptr inbounds nuw %"class.boost::urls::detail::query_ref", ptr %7, i32 0, i32 1
  %43 = load ptr, ptr %42, align 8, !tbaa !51
  store ptr %43, ptr %2, align 8
  br label %44

44:                                               ; preds = %41, %40
  %45 = load ptr, ptr %2, align 8
  ret ptr %45
}