; Function Attrs: mustprogress nofree norecurse nosync nounwind willreturn memory(read, inaccessiblemem: none) uwtable
define noundef ptr @_ZNK5boost4urls6detail9query_ref5beginEv(ptr nocapture noundef nonnull readonly align 8 dereferenceable(41) %0) local_unnamed_addr #10 align 2 {
  %2 = load ptr, ptr %0, align 8, !tbaa !49
  %.not = icmp eq ptr %2, null
  br i1 %.not, label %11, label %3

3:                                                ; preds = %1
  %4 = getelementptr inbounds i8, ptr %2, i64 48
  %5 = load i64, ptr %4, align 8, !tbaa !13
  %6 = getelementptr inbounds i8, ptr %2, i64 56
  %7 = load i64, ptr %6, align 8, !tbaa !13
  %8 = icmp ult i64 %5, %7
  %9 = load ptr, ptr %2, align 8, !tbaa !31
  %10 = getelementptr inbounds nuw i8, ptr %9, i64 %5
  %spec.select.idx = zext i1 %8 to i64
  %spec.select = getelementptr inbounds i8, ptr %10, i64 %spec.select.idx
  br label %14

11:                                               ; preds = %1
  %12 = getelementptr inbounds nuw i8, ptr %0, i64 8
  %13 = load ptr, ptr %12, align 8, !tbaa !52
  br label %14

14:                                               ; preds = %3, %11
  %.1 = phi ptr [ %13, %11 ], [ %spec.select, %3 ]
  ret ptr %.1
}